
avrtestproject.elf:     file format elf32-avr

Sections:
Idx Name          Size      VMA       LMA       File off  Algn
  0 .text         00000582  00000000  00000000  00000094  2**1
                  CONTENTS, ALLOC, LOAD, READONLY, CODE
  1 .data         00000006  00800060  00000582  00000616  2**0
                  CONTENTS, ALLOC, LOAD, DATA
  2 .bss          0000001a  00800066  00800066  0000061c  2**0
                  ALLOC
  3 .stab         000006cc  00000000  00000000  0000061c  2**2
                  CONTENTS, READONLY, DEBUGGING
  4 .stabstr      00000054  00000000  00000000  00000ce8  2**0
                  CONTENTS, READONLY, DEBUGGING

Disassembly of section .text:

00000000 <__vectors>:
   0:	12 c0       	rjmp	.+36     	; 0x26 <__ctors_end>
   2:	2d c0       	rjmp	.+90     	; 0x5e <__vector_1>
   4:	2b c0       	rjmp	.+86     	; 0x5c <__bad_interrupt>
   6:	2a c0       	rjmp	.+84     	; 0x5c <__bad_interrupt>
   8:	29 c0       	rjmp	.+82     	; 0x5c <__bad_interrupt>
   a:	28 c0       	rjmp	.+80     	; 0x5c <__bad_interrupt>
   c:	27 c0       	rjmp	.+78     	; 0x5c <__bad_interrupt>
   e:	26 c0       	rjmp	.+76     	; 0x5c <__bad_interrupt>
  10:	25 c0       	rjmp	.+74     	; 0x5c <__bad_interrupt>
  12:	24 c0       	rjmp	.+72     	; 0x5c <__bad_interrupt>
  14:	23 c0       	rjmp	.+70     	; 0x5c <__bad_interrupt>
  16:	22 c0       	rjmp	.+68     	; 0x5c <__bad_interrupt>
  18:	21 c0       	rjmp	.+66     	; 0x5c <__bad_interrupt>
  1a:	20 c0       	rjmp	.+64     	; 0x5c <__bad_interrupt>
  1c:	ca c1       	rjmp	.+916    	; 0x3b2 <__vector_14>
  1e:	1e c0       	rjmp	.+60     	; 0x5c <__bad_interrupt>
  20:	1d c0       	rjmp	.+58     	; 0x5c <__bad_interrupt>
  22:	1c c0       	rjmp	.+56     	; 0x5c <__bad_interrupt>
  24:	1b c0       	rjmp	.+54     	; 0x5c <__bad_interrupt>

00000026 <__ctors_end>:
  26:	11 24       	eor	r1, r1
  28:	1f be       	out	0x3f, r1	; 63
  2a:	cf e5       	ldi	r28, 0x5F	; 95
  2c:	d4 e0       	ldi	r29, 0x04	; 4
  2e:	de bf       	out	0x3e, r29	; 62
  30:	cd bf       	out	0x3d, r28	; 61

00000032 <__do_copy_data>:
  32:	10 e0       	ldi	r17, 0x00	; 0
  34:	a0 e6       	ldi	r26, 0x60	; 96
  36:	b0 e0       	ldi	r27, 0x00	; 0
  38:	e2 e8       	ldi	r30, 0x82	; 130
  3a:	f5 e0       	ldi	r31, 0x05	; 5
  3c:	02 c0       	rjmp	.+4      	; 0x42 <__SREG__+0x3>
  3e:	05 90       	lpm	r0, Z+
  40:	0d 92       	st	X+, r0
  42:	a6 36       	cpi	r26, 0x66	; 102
  44:	b1 07       	cpc	r27, r17
  46:	d9 f7       	brne	.-10     	; 0x3e <__SP_H__>

00000048 <__do_clear_bss>:
  48:	10 e0       	ldi	r17, 0x00	; 0
  4a:	a6 e6       	ldi	r26, 0x66	; 102
  4c:	b0 e0       	ldi	r27, 0x00	; 0
  4e:	01 c0       	rjmp	.+2      	; 0x52 <.do_clear_bss_start>

00000050 <.do_clear_bss_loop>:
  50:	1d 92       	st	X+, r1

00000052 <.do_clear_bss_start>:
  52:	a0 38       	cpi	r26, 0x80	; 128
  54:	b1 07       	cpc	r27, r17
  56:	e1 f7       	brne	.-8      	; 0x50 <.do_clear_bss_loop>
  58:	60 d2       	rcall	.+1216   	; 0x51a <main>
  5a:	91 c2       	rjmp	.+1314   	; 0x57e <_exit>

0000005c <__bad_interrupt>:
  5c:	d1 cf       	rjmp	.-94     	; 0x0 <__vectors>

0000005e <__vector_1>:
  5e:	1f 92       	push	r1
  60:	0f 92       	push	r0
  62:	0f b6       	in	r0, 0x3f	; 63
  64:	0f 92       	push	r0
  66:	11 24       	eor	r1, r1
  68:	8f 93       	push	r24
  6a:	83 e0       	ldi	r24, 0x03	; 3
  6c:	80 93 66 00 	sts	0x0066, r24
  70:	8b b7       	in	r24, 0x3b	; 59
  72:	8f 7b       	andi	r24, 0xBF	; 191
  74:	8b bf       	out	0x3b, r24	; 59
  76:	89 b7       	in	r24, 0x39	; 57
  78:	8f 77       	andi	r24, 0x7F	; 127
  7a:	89 bf       	out	0x39, r24	; 57
  7c:	85 b5       	in	r24, 0x25	; 37
  7e:	8d 7f       	andi	r24, 0xFD	; 253
  80:	85 bd       	out	0x25, r24	; 37
  82:	89 e0       	ldi	r24, 0x09	; 9
  84:	82 bf       	out	0x32, r24	; 50
  86:	85 b5       	in	r24, 0x25	; 37
  88:	82 60       	ori	r24, 0x02	; 2
  8a:	85 bd       	out	0x25, r24	; 37
  8c:	8b e9       	ldi	r24, 0x9B	; 155
  8e:	83 bd       	out	0x23, r24	; 35
  90:	10 92 69 00 	sts	0x0069, r1
  94:	88 b7       	in	r24, 0x38	; 56
  96:	80 68       	ori	r24, 0x80	; 128
  98:	88 bf       	out	0x38, r24	; 56
  9a:	89 b7       	in	r24, 0x39	; 57
  9c:	80 68       	ori	r24, 0x80	; 128
  9e:	89 bf       	out	0x39, r24	; 57
  a0:	8f 91       	pop	r24
  a2:	0f 90       	pop	r0
  a4:	0f be       	out	0x3f, r0	; 63
  a6:	0f 90       	pop	r0
  a8:	1f 90       	pop	r1
  aa:	18 95       	reti

000000ac <SRI>:
  ac:	80 91 66 00 	lds	r24, 0x0066
  b0:	82 30       	cpi	r24, 0x02	; 2
  b2:	01 f1       	breq	.+64     	; 0xf4 <SRI+0x48>
  b4:	83 30       	cpi	r24, 0x03	; 3
  b6:	21 f1       	breq	.+72     	; 0x100 <SRI+0x54>
  b8:	81 30       	cpi	r24, 0x01	; 1
  ba:	09 f0       	breq	.+2      	; 0xbe <SRI+0x12>
  bc:	46 c0       	rjmp	.+140    	; 0x14a <SRI+0x9e>
  be:	80 91 68 00 	lds	r24, 0x0068
  c2:	88 30       	cpi	r24, 0x08	; 8
  c4:	90 f4       	brcc	.+36     	; 0xea <SRI+0x3e>
  c6:	80 91 67 00 	lds	r24, 0x0067
  ca:	80 ff       	sbrs	r24, 0
  cc:	02 c0       	rjmp	.+4      	; 0xd2 <SRI+0x26>
  ce:	93 9a       	sbi	0x12, 3	; 18
  d0:	01 c0       	rjmp	.+2      	; 0xd4 <SRI+0x28>
  d2:	93 98       	cbi	0x12, 3	; 18
  d4:	80 91 67 00 	lds	r24, 0x0067
  d8:	86 95       	lsr	r24
  da:	80 93 67 00 	sts	0x0067, r24
  de:	80 91 68 00 	lds	r24, 0x0068
  e2:	8f 5f       	subi	r24, 0xFF	; 255
  e4:	80 93 68 00 	sts	0x0068, r24
  e8:	32 c0       	rjmp	.+100    	; 0x14e <SRI+0xa2>
  ea:	93 9a       	sbi	0x12, 3	; 18
  ec:	82 e0       	ldi	r24, 0x02	; 2
  ee:	80 93 66 00 	sts	0x0066, r24
  f2:	2d c0       	rjmp	.+90     	; 0x14e <SRI+0xa2>
  f4:	89 b7       	in	r24, 0x39	; 57
  f6:	8f 77       	andi	r24, 0x7F	; 127
  f8:	89 bf       	out	0x39, r24	; 57
  fa:	10 92 66 00 	sts	0x0066, r1
  fe:	21 c0       	rjmp	.+66     	; 0x142 <SRI+0x96>
 100:	87 e6       	ldi	r24, 0x67	; 103
 102:	83 bd       	out	0x23, r24	; 35
 104:	80 91 69 00 	lds	r24, 0x0069
 108:	88 30       	cpi	r24, 0x08	; 8
 10a:	90 f4       	brcc	.+36     	; 0x130 <SRI+0x84>
 10c:	80 91 69 00 	lds	r24, 0x0069
 110:	8f 5f       	subi	r24, 0xFF	; 255
 112:	80 93 69 00 	sts	0x0069, r24
 116:	80 91 6a 00 	lds	r24, 0x006A
 11a:	86 95       	lsr	r24
 11c:	80 93 6a 00 	sts	0x006A, r24
 120:	82 9b       	sbis	0x10, 2	; 16
 122:	15 c0       	rjmp	.+42     	; 0x14e <SRI+0xa2>
 124:	80 91 6a 00 	lds	r24, 0x006A
 128:	80 68       	ori	r24, 0x80	; 128
 12a:	80 93 6a 00 	sts	0x006A, r24
 12e:	0f c0       	rjmp	.+30     	; 0x14e <SRI+0xa2>
 130:	84 e0       	ldi	r24, 0x04	; 4
 132:	80 93 66 00 	sts	0x0066, r24
 136:	89 b7       	in	r24, 0x39	; 57
 138:	8f 77       	andi	r24, 0x7F	; 127
 13a:	89 bf       	out	0x39, r24	; 57
 13c:	8a b7       	in	r24, 0x3a	; 58
 13e:	80 64       	ori	r24, 0x40	; 64
 140:	8a bf       	out	0x3a, r24	; 58
 142:	8b b7       	in	r24, 0x3b	; 59
 144:	80 64       	ori	r24, 0x40	; 64
 146:	8b bf       	out	0x3b, r24	; 59
 148:	02 c0       	rjmp	.+4      	; 0x14e <SRI+0xa2>
 14a:	10 92 66 00 	sts	0x0066, r1
 14e:	80 e0       	ldi	r24, 0x00	; 0
 150:	90 e0       	ldi	r25, 0x00	; 0
 152:	08 95       	ret

00000154 <putChar>:
 154:	90 91 66 00 	lds	r25, 0x0066
 158:	99 23       	and	r25, r25
 15a:	e1 f7       	brne	.-8      	; 0x154 <putChar>
 15c:	91 e0       	ldi	r25, 0x01	; 1
 15e:	90 93 66 00 	sts	0x0066, r25
 162:	9b b7       	in	r25, 0x3b	; 59
 164:	9f 7b       	andi	r25, 0xBF	; 191
 166:	9b bf       	out	0x3b, r25	; 59
 168:	80 93 67 00 	sts	0x0067, r24
 16c:	10 92 68 00 	sts	0x0068, r1
 170:	85 b5       	in	r24, 0x25	; 37
 172:	8d 7f       	andi	r24, 0xFD	; 253
 174:	85 bd       	out	0x25, r24	; 37
 176:	12 be       	out	0x32, r1	; 50
 178:	85 b5       	in	r24, 0x25	; 37
 17a:	82 60       	ori	r24, 0x02	; 2
 17c:	85 bd       	out	0x25, r24	; 37
 17e:	93 98       	cbi	0x12, 3	; 18
 180:	93 98       	cbi	0x12, 3	; 18
 182:	89 b7       	in	r24, 0x39	; 57
 184:	80 68       	ori	r24, 0x80	; 128
 186:	89 bf       	out	0x39, r24	; 57
 188:	08 95       	ret

0000018a <suart_print>:
 18a:	ef 92       	push	r14
 18c:	ff 92       	push	r15
 18e:	cf 93       	push	r28
 190:	df 93       	push	r29
 192:	e8 2e       	mov	r14, r24
 194:	e7 01       	movw	r28, r14
 196:	7e 01       	movw	r14, r28
 198:	f9 2e       	mov	r15, r25
 19a:	e7 01       	movw	r28, r14
 19c:	01 c0       	rjmp	.+2      	; 0x1a0 <suart_print+0x16>
 19e:	da df       	rcall	.-76     	; 0x154 <putChar>
 1a0:	89 91       	ld	r24, Y+
 1a2:	88 23       	and	r24, r24
 1a4:	e1 f7       	brne	.-8      	; 0x19e <suart_print+0x14>
 1a6:	df 91       	pop	r29
 1a8:	cf 91       	pop	r28
 1aa:	ff 90       	pop	r15
 1ac:	ef 90       	pop	r14
 1ae:	08 95       	ret

000001b0 <initADC>:
 1b0:	86 b1       	in	r24, 0x06	; 6
 1b2:	8e 6a       	ori	r24, 0xAE	; 174
 1b4:	86 b9       	out	0x06, r24	; 6
 1b6:	36 9a       	sbi	0x06, 6	; 6
 1b8:	84 b1       	in	r24, 0x04	; 4
 1ba:	95 b1       	in	r25, 0x05	; 5
 1bc:	08 95       	ret

000001be <initializeMotors>:
 1be:	87 b3       	in	r24, 0x17	; 23
 1c0:	8f 6c       	ori	r24, 0xCF	; 207
 1c2:	87 bb       	out	0x17, r24	; 23
 1c4:	81 b3       	in	r24, 0x11	; 17
 1c6:	83 6f       	ori	r24, 0xF3	; 243
 1c8:	81 bb       	out	0x11, r24	; 17
 1ca:	88 b3       	in	r24, 0x18	; 24
 1cc:	80 73       	andi	r24, 0x30	; 48
 1ce:	88 bb       	out	0x18, r24	; 24
 1d0:	82 b3       	in	r24, 0x12	; 18
 1d2:	8c 70       	andi	r24, 0x0C	; 12
 1d4:	82 bb       	out	0x12, r24	; 18
 1d6:	83 b7       	in	r24, 0x33	; 51
 1d8:	82 60       	ori	r24, 0x02	; 2
 1da:	83 bf       	out	0x33, r24	; 51
 1dc:	12 be       	out	0x32, r1	; 50
 1de:	8e b5       	in	r24, 0x2e	; 46
 1e0:	82 60       	ori	r24, 0x02	; 2
 1e2:	8e bd       	out	0x2e, r24	; 46
 1e4:	08 95       	ret

000001e6 <motor2_positive_on>:
 1e6:	80 91 7a 00 	lds	r24, 0x007A
 1ea:	82 30       	cpi	r24, 0x02	; 2
 1ec:	81 f0       	breq	.+32     	; 0x20e <motor2_positive_on+0x28>
 1ee:	83 30       	cpi	r24, 0x03	; 3
 1f0:	28 f4       	brcc	.+10     	; 0x1fc <motor2_positive_on+0x16>
 1f2:	88 23       	and	r24, r24
 1f4:	81 f0       	breq	.+32     	; 0x216 <motor2_positive_on+0x30>
 1f6:	81 30       	cpi	r24, 0x01	; 1
 1f8:	79 f4       	brne	.+30     	; 0x218 <motor2_positive_on+0x32>
 1fa:	07 c0       	rjmp	.+14     	; 0x20a <motor2_positive_on+0x24>
 1fc:	84 30       	cpi	r24, 0x04	; 4
 1fe:	49 f0       	breq	.+18     	; 0x212 <motor2_positive_on+0x2c>
 200:	84 30       	cpi	r24, 0x04	; 4
 202:	28 f0       	brcs	.+10     	; 0x20e <motor2_positive_on+0x28>
 204:	85 30       	cpi	r24, 0x05	; 5
 206:	41 f4       	brne	.+16     	; 0x218 <motor2_positive_on+0x32>
 208:	04 c0       	rjmp	.+8      	; 0x212 <motor2_positive_on+0x2c>
 20a:	91 9a       	sbi	0x12, 1	; 18
 20c:	08 95       	ret
 20e:	c7 9a       	sbi	0x18, 7	; 24
 210:	08 95       	ret
 212:	94 9a       	sbi	0x12, 4	; 18
 214:	08 95       	ret
 216:	91 9a       	sbi	0x12, 1	; 18
 218:	08 95       	ret

0000021a <motor2_turn>:
 21a:	88 b3       	in	r24, 0x18	; 24
 21c:	8f 73       	andi	r24, 0x3F	; 63
 21e:	88 bb       	out	0x18, r24	; 24
 220:	82 b3       	in	r24, 0x12	; 18
 222:	8c 7c       	andi	r24, 0xCC	; 204
 224:	82 bb       	out	0x12, r24	; 18
 226:	80 91 7a 00 	lds	r24, 0x007A
 22a:	82 30       	cpi	r24, 0x02	; 2
 22c:	b1 f0       	breq	.+44     	; 0x25a <motor2_turn+0x40>
 22e:	83 30       	cpi	r24, 0x03	; 3
 230:	28 f4       	brcc	.+10     	; 0x23c <motor2_turn+0x22>
 232:	88 23       	and	r24, r24
 234:	51 f0       	breq	.+20     	; 0x24a <motor2_turn+0x30>
 236:	81 30       	cpi	r24, 0x01	; 1
 238:	11 f5       	brne	.+68     	; 0x27e <motor2_turn+0x64>
 23a:	0b c0       	rjmp	.+22     	; 0x252 <motor2_turn+0x38>
 23c:	84 30       	cpi	r24, 0x04	; 4
 23e:	a9 f0       	breq	.+42     	; 0x26a <motor2_turn+0x50>
 240:	84 30       	cpi	r24, 0x04	; 4
 242:	78 f0       	brcs	.+30     	; 0x262 <motor2_turn+0x48>
 244:	85 30       	cpi	r24, 0x05	; 5
 246:	d9 f4       	brne	.+54     	; 0x27e <motor2_turn+0x64>
 248:	16 c0       	rjmp	.+44     	; 0x276 <motor2_turn+0x5c>
 24a:	91 9a       	sbi	0x12, 1	; 18
 24c:	c6 9a       	sbi	0x18, 6	; 24
 24e:	81 e0       	ldi	r24, 0x01	; 1
 250:	0f c0       	rjmp	.+30     	; 0x270 <motor2_turn+0x56>
 252:	c7 9a       	sbi	0x18, 7	; 24
 254:	c6 9a       	sbi	0x18, 6	; 24
 256:	82 e0       	ldi	r24, 0x02	; 2
 258:	0b c0       	rjmp	.+22     	; 0x270 <motor2_turn+0x56>
 25a:	c7 9a       	sbi	0x18, 7	; 24
 25c:	90 9a       	sbi	0x12, 0	; 18
 25e:	83 e0       	ldi	r24, 0x03	; 3
 260:	07 c0       	rjmp	.+14     	; 0x270 <motor2_turn+0x56>
 262:	94 9a       	sbi	0x12, 4	; 18
 264:	90 9a       	sbi	0x12, 0	; 18
 266:	84 e0       	ldi	r24, 0x04	; 4
 268:	03 c0       	rjmp	.+6      	; 0x270 <motor2_turn+0x56>
 26a:	94 9a       	sbi	0x12, 4	; 18
 26c:	95 9a       	sbi	0x12, 5	; 18
 26e:	85 e0       	ldi	r24, 0x05	; 5
 270:	80 93 7a 00 	sts	0x007A, r24
 274:	08 95       	ret
 276:	91 9a       	sbi	0x12, 1	; 18
 278:	95 9a       	sbi	0x12, 5	; 18
 27a:	10 92 7a 00 	sts	0x007A, r1
 27e:	08 95       	ret

00000280 <motor2_setratio>:
 280:	80 93 6b 00 	sts	0x006B, r24
 284:	88 23       	and	r24, r24
 286:	61 f4       	brne	.+24     	; 0x2a0 <motor2_setratio+0x20>
 288:	10 92 6c 00 	sts	0x006C, r1
 28c:	80 ed       	ldi	r24, 0xD0	; 208
 28e:	97 e0       	ldi	r25, 0x07	; 7
 290:	90 93 65 00 	sts	0x0065, r25
 294:	80 93 64 00 	sts	0x0064, r24
 298:	10 92 79 00 	sts	0x0079, r1
 29c:	10 92 7f 00 	sts	0x007F, r1
 2a0:	08 95       	ret

000002a2 <getTimeDelta>:
 2a2:	96 2f       	mov	r25, r22
 2a4:	98 1b       	sub	r25, r24
 2a6:	68 17       	cp	r22, r24
 2a8:	10 f0       	brcs	.+4      	; 0x2ae <getTimeDelta+0xc>
 2aa:	89 2f       	mov	r24, r25
 2ac:	08 95       	ret
 2ae:	89 2f       	mov	r24, r25
 2b0:	81 50       	subi	r24, 0x01	; 1
 2b2:	08 95       	ret

000002b4 <motor2_switchADCChannel>:
 2b4:	01 c0       	rjmp	.+2      	; 0x2b8 <motor2_switchADCChannel+0x4>
 2b6:	86 50       	subi	r24, 0x06	; 6
 2b8:	86 30       	cpi	r24, 0x06	; 6
 2ba:	e8 f7       	brcc	.-6      	; 0x2b6 <motor2_switchADCChannel+0x2>
 2bc:	83 30       	cpi	r24, 0x03	; 3
 2be:	71 f0       	breq	.+28     	; 0x2dc <motor2_switchADCChannel+0x28>
 2c0:	84 30       	cpi	r24, 0x04	; 4
 2c2:	28 f4       	brcc	.+10     	; 0x2ce <motor2_switchADCChannel+0x1a>
 2c4:	81 30       	cpi	r24, 0x01	; 1
 2c6:	61 f0       	breq	.+24     	; 0x2e0 <motor2_switchADCChannel+0x2c>
 2c8:	82 30       	cpi	r24, 0x02	; 2
 2ca:	41 f4       	brne	.+16     	; 0x2dc <motor2_switchADCChannel+0x28>
 2cc:	05 c0       	rjmp	.+10     	; 0x2d8 <motor2_switchADCChannel+0x24>
 2ce:	84 30       	cpi	r24, 0x04	; 4
 2d0:	39 f0       	breq	.+14     	; 0x2e0 <motor2_switchADCChannel+0x2c>
 2d2:	85 30       	cpi	r24, 0x05	; 5
 2d4:	19 f4       	brne	.+6      	; 0x2dc <motor2_switchADCChannel+0x28>
 2d6:	05 c0       	rjmp	.+10     	; 0x2e2 <motor2_switchADCChannel+0x2e>
 2d8:	85 e0       	ldi	r24, 0x05	; 5
 2da:	03 c0       	rjmp	.+6      	; 0x2e2 <motor2_switchADCChannel+0x2e>
 2dc:	84 e0       	ldi	r24, 0x04	; 4
 2de:	01 c0       	rjmp	.+2      	; 0x2e2 <motor2_switchADCChannel+0x2e>
 2e0:	83 e0       	ldi	r24, 0x03	; 3
 2e2:	87 b9       	out	0x07, r24	; 7
 2e4:	08 95       	ret

000002e6 <motor2_startup>:
 2e6:	0f 93       	push	r16
 2e8:	1f 93       	push	r17
 2ea:	cf 93       	push	r28
 2ec:	df 93       	push	r29
 2ee:	00 91 7b 00 	lds	r16, 0x007B
 2f2:	10 91 7c 00 	lds	r17, 0x007C
 2f6:	c0 91 64 00 	lds	r28, 0x0064
 2fa:	d0 91 65 00 	lds	r29, 0x0065
 2fe:	c0 17       	cp	r28, r16
 300:	d1 07       	cpc	r29, r17
 302:	08 f0       	brcs	.+2      	; 0x306 <motor2_startup+0x20>
 304:	48 c0       	rjmp	.+144    	; 0x396 <motor2_startup+0xb0>
 306:	ce 01       	movw	r24, r28
 308:	0a 97       	sbiw	r24, 0x0a	; 10
 30a:	90 93 65 00 	sts	0x0065, r25
 30e:	80 93 64 00 	sts	0x0064, r24
 312:	8c b5       	in	r24, 0x2c	; 44
 314:	9d b5       	in	r25, 0x2d	; 45
 316:	90 93 73 00 	sts	0x0073, r25
 31a:	80 93 72 00 	sts	0x0072, r24
 31e:	7d df       	rcall	.-262    	; 0x21a <motor2_turn>
 320:	80 91 7a 00 	lds	r24, 0x007A
 324:	c7 df       	rcall	.-114    	; 0x2b4 <motor2_switchADCChannel>
 326:	41 e0       	ldi	r20, 0x01	; 1
 328:	40 93 74 00 	sts	0x0074, r20
 32c:	08 3c       	cpi	r16, 0xC8	; 200
 32e:	11 05       	cpc	r17, r1
 330:	70 f5       	brcc	.+92     	; 0x38e <motor2_startup+0xa8>
 332:	80 91 7d 00 	lds	r24, 0x007D
 336:	90 91 7e 00 	lds	r25, 0x007E
 33a:	23 e0       	ldi	r18, 0x03	; 3
 33c:	88 3e       	cpi	r24, 0xE8	; 232
 33e:	92 07       	cpc	r25, r18
 340:	50 f4       	brcc	.+20     	; 0x356 <motor2_startup+0x70>
 342:	d0 93 65 00 	sts	0x0065, r29
 346:	c0 93 64 00 	sts	0x0064, r28
 34a:	01 96       	adiw	r24, 0x01	; 1
 34c:	90 93 7e 00 	sts	0x007E, r25
 350:	80 93 7d 00 	sts	0x007D, r24
 354:	1c c0       	rjmp	.+56     	; 0x38e <motor2_startup+0xa8>
 356:	10 92 7e 00 	sts	0x007E, r1
 35a:	10 92 7d 00 	sts	0x007D, r1
 35e:	80 91 60 00 	lds	r24, 0x0060
 362:	90 91 61 00 	lds	r25, 0x0061
 366:	20 91 75 00 	lds	r18, 0x0075
 36a:	30 91 76 00 	lds	r19, 0x0076
 36e:	82 0f       	add	r24, r18
 370:	93 1f       	adc	r25, r19
 372:	96 95       	lsr	r25
 374:	87 95       	ror	r24
 376:	90 93 63 00 	sts	0x0063, r25
 37a:	80 93 62 00 	sts	0x0062, r24
 37e:	40 93 6c 00 	sts	0x006C, r20
 382:	80 ed       	ldi	r24, 0xD0	; 208
 384:	97 e0       	ldi	r25, 0x07	; 7
 386:	90 93 65 00 	sts	0x0065, r25
 38a:	80 93 64 00 	sts	0x0064, r24
 38e:	10 92 7c 00 	sts	0x007C, r1
 392:	10 92 7b 00 	sts	0x007B, r1
 396:	80 91 7b 00 	lds	r24, 0x007B
 39a:	90 91 7c 00 	lds	r25, 0x007C
 39e:	01 96       	adiw	r24, 0x01	; 1
 3a0:	90 93 7c 00 	sts	0x007C, r25
 3a4:	80 93 7b 00 	sts	0x007B, r24
 3a8:	df 91       	pop	r29
 3aa:	cf 91       	pop	r28
 3ac:	1f 91       	pop	r17
 3ae:	0f 91       	pop	r16
 3b0:	08 95       	ret

000003b2 <__vector_14>:
 3b2:	1f 92       	push	r1
 3b4:	0f 92       	push	r0
 3b6:	0f b6       	in	r0, 0x3f	; 63
 3b8:	0f 92       	push	r0
 3ba:	11 24       	eor	r1, r1
 3bc:	1f 93       	push	r17
 3be:	2f 93       	push	r18
 3c0:	3f 93       	push	r19
 3c2:	4f 93       	push	r20
 3c4:	5f 93       	push	r21
 3c6:	6f 93       	push	r22
 3c8:	7f 93       	push	r23
 3ca:	8f 93       	push	r24
 3cc:	9f 93       	push	r25
 3ce:	af 93       	push	r26
 3d0:	bf 93       	push	r27
 3d2:	cf 93       	push	r28
 3d4:	df 93       	push	r29
 3d6:	ef 93       	push	r30
 3d8:	ff 93       	push	r31
 3da:	80 91 6d 00 	lds	r24, 0x006D
 3de:	88 23       	and	r24, r24
 3e0:	21 f4       	brne	.+8      	; 0x3ea <__vector_14+0x38>
 3e2:	80 91 74 00 	lds	r24, 0x0074
 3e6:	88 23       	and	r24, r24
 3e8:	29 f0       	breq	.+10     	; 0x3f4 <__vector_14+0x42>
 3ea:	84 b1       	in	r24, 0x04	; 4
 3ec:	95 b1       	in	r25, 0x05	; 5
 3ee:	10 92 74 00 	sts	0x0074, r1
 3f2:	7f c0       	rjmp	.+254    	; 0x4f2 <__stack+0x93>
 3f4:	80 91 6c 00 	lds	r24, 0x006C
 3f8:	88 23       	and	r24, r24
 3fa:	d1 f4       	brne	.+52     	; 0x430 <__vector_14+0x7e>
 3fc:	84 b1       	in	r24, 0x04	; 4
 3fe:	95 b1       	in	r25, 0x05	; 5
 400:	20 91 75 00 	lds	r18, 0x0075
 404:	30 91 76 00 	lds	r19, 0x0076
 408:	28 17       	cp	r18, r24
 40a:	39 07       	cpc	r19, r25
 40c:	20 f4       	brcc	.+8      	; 0x416 <__vector_14+0x64>
 40e:	90 93 76 00 	sts	0x0076, r25
 412:	80 93 75 00 	sts	0x0075, r24
 416:	20 91 60 00 	lds	r18, 0x0060
 41a:	30 91 61 00 	lds	r19, 0x0061
 41e:	82 17       	cp	r24, r18
 420:	93 07       	cpc	r25, r19
 422:	08 f0       	brcs	.+2      	; 0x426 <__vector_14+0x74>
 424:	66 c0       	rjmp	.+204    	; 0x4f2 <__stack+0x93>
 426:	90 93 61 00 	sts	0x0061, r25
 42a:	80 93 60 00 	sts	0x0060, r24
 42e:	61 c0       	rjmp	.+194    	; 0x4f2 <__stack+0x93>
 430:	84 b1       	in	r24, 0x04	; 4
 432:	95 b1       	in	r25, 0x05	; 5
 434:	90 93 78 00 	sts	0x0078, r25
 438:	80 93 77 00 	sts	0x0077, r24
 43c:	10 91 79 00 	lds	r17, 0x0079
 440:	11 30       	cpi	r17, 0x01	; 1
 442:	99 f0       	breq	.+38     	; 0x46a <__stack+0xb>
 444:	11 30       	cpi	r17, 0x01	; 1
 446:	20 f0       	brcs	.+8      	; 0x450 <__vector_14+0x9e>
 448:	12 30       	cpi	r17, 0x02	; 2
 44a:	09 f0       	breq	.+2      	; 0x44e <__vector_14+0x9c>
 44c:	52 c0       	rjmp	.+164    	; 0x4f2 <__stack+0x93>
 44e:	2a c0       	rjmp	.+84     	; 0x4a4 <__stack+0x45>
 450:	20 91 62 00 	lds	r18, 0x0062
 454:	30 91 63 00 	lds	r19, 0x0063
 458:	28 17       	cp	r18, r24
 45a:	39 07       	cpc	r19, r25
 45c:	10 f4       	brcc	.+4      	; 0x462 <__stack+0x3>
 45e:	81 e0       	ldi	r24, 0x01	; 1
 460:	01 c0       	rjmp	.+2      	; 0x464 <__stack+0x5>
 462:	82 e0       	ldi	r24, 0x02	; 2
 464:	80 93 79 00 	sts	0x0079, r24
 468:	44 c0       	rjmp	.+136    	; 0x4f2 <__stack+0x93>
 46a:	20 91 62 00 	lds	r18, 0x0062
 46e:	30 91 63 00 	lds	r19, 0x0063
 472:	28 17       	cp	r18, r24
 474:	39 07       	cpc	r19, r25
 476:	e8 f1       	brcs	.+122    	; 0x4f2 <__stack+0x93>
 478:	cc b5       	in	r28, 0x2c	; 44
 47a:	dd b5       	in	r29, 0x2d	; 45
 47c:	d0 93 6f 00 	sts	0x006F, r29
 480:	c0 93 6e 00 	sts	0x006E, r28
 484:	80 91 72 00 	lds	r24, 0x0072
 488:	6c 2f       	mov	r22, r28
 48a:	0b df       	rcall	.-490    	; 0x2a2 <getTimeDelta>
 48c:	9e 01       	movw	r18, r28
 48e:	28 0f       	add	r18, r24
 490:	31 1d       	adc	r19, r1
 492:	30 93 71 00 	sts	0x0071, r19
 496:	20 93 70 00 	sts	0x0070, r18
 49a:	c2 17       	cp	r28, r18
 49c:	d3 07       	cpc	r29, r19
 49e:	08 f1       	brcs	.+66     	; 0x4e2 <__stack+0x83>
 4a0:	82 e0       	ldi	r24, 0x02	; 2
 4a2:	1c c0       	rjmp	.+56     	; 0x4dc <__stack+0x7d>
 4a4:	20 91 62 00 	lds	r18, 0x0062
 4a8:	30 91 63 00 	lds	r19, 0x0063
 4ac:	82 17       	cp	r24, r18
 4ae:	93 07       	cpc	r25, r19
 4b0:	00 f1       	brcs	.+64     	; 0x4f2 <__stack+0x93>
 4b2:	cc b5       	in	r28, 0x2c	; 44
 4b4:	dd b5       	in	r29, 0x2d	; 45
 4b6:	d0 93 6f 00 	sts	0x006F, r29
 4ba:	c0 93 6e 00 	sts	0x006E, r28
 4be:	80 91 72 00 	lds	r24, 0x0072
 4c2:	6c 2f       	mov	r22, r28
 4c4:	ee de       	rcall	.-548    	; 0x2a2 <getTimeDelta>
 4c6:	9e 01       	movw	r18, r28
 4c8:	28 0f       	add	r18, r24
 4ca:	31 1d       	adc	r19, r1
 4cc:	30 93 71 00 	sts	0x0071, r19
 4d0:	20 93 70 00 	sts	0x0070, r18
 4d4:	c2 17       	cp	r28, r18
 4d6:	d3 07       	cpc	r29, r19
 4d8:	20 f4       	brcc	.+8      	; 0x4e2 <__stack+0x83>
 4da:	81 e0       	ldi	r24, 0x01	; 1
 4dc:	80 93 6d 00 	sts	0x006D, r24
 4e0:	02 c0       	rjmp	.+4      	; 0x4e6 <__stack+0x87>
 4e2:	10 93 6d 00 	sts	0x006D, r17
 4e6:	80 91 7a 00 	lds	r24, 0x007A
 4ea:	8f 5f       	subi	r24, 0xFF	; 255
 4ec:	e3 de       	rcall	.-570    	; 0x2b4 <motor2_switchADCChannel>
 4ee:	10 92 79 00 	sts	0x0079, r1
 4f2:	ff 91       	pop	r31
 4f4:	ef 91       	pop	r30
 4f6:	df 91       	pop	r29
 4f8:	cf 91       	pop	r28
 4fa:	bf 91       	pop	r27
 4fc:	af 91       	pop	r26
 4fe:	9f 91       	pop	r25
 500:	8f 91       	pop	r24
 502:	7f 91       	pop	r23
 504:	6f 91       	pop	r22
 506:	5f 91       	pop	r21
 508:	4f 91       	pop	r20
 50a:	3f 91       	pop	r19
 50c:	2f 91       	pop	r18
 50e:	1f 91       	pop	r17
 510:	0f 90       	pop	r0
 512:	0f be       	out	0x3f, r0	; 63
 514:	0f 90       	pop	r0
 516:	1f 90       	pop	r1
 518:	18 95       	reti

0000051a <main>:
 51a:	51 de       	rcall	.-862    	; 0x1be <initializeMotors>
 51c:	49 de       	rcall	.-878    	; 0x1b0 <initADC>
 51e:	8a e0       	ldi	r24, 0x0A	; 10
 520:	80 93 6b 00 	sts	0x006B, r24
 524:	78 94       	sei
 526:	80 91 6b 00 	lds	r24, 0x006B
 52a:	88 23       	and	r24, r24
 52c:	e1 f3       	breq	.-8      	; 0x526 <main+0xc>
 52e:	80 91 6c 00 	lds	r24, 0x006C
 532:	88 23       	and	r24, r24
 534:	11 f1       	breq	.+68     	; 0x57a <main+0x60>
 536:	80 91 6d 00 	lds	r24, 0x006D
 53a:	81 30       	cpi	r24, 0x01	; 1
 53c:	59 f0       	breq	.+22     	; 0x554 <main+0x3a>
 53e:	82 30       	cpi	r24, 0x02	; 2
 540:	91 f7       	brne	.-28     	; 0x526 <main+0xc>
 542:	2c b5       	in	r18, 0x2c	; 44
 544:	3d b5       	in	r19, 0x2d	; 45
 546:	80 91 6e 00 	lds	r24, 0x006E
 54a:	90 91 6f 00 	lds	r25, 0x006F
 54e:	28 17       	cp	r18, r24
 550:	39 07       	cpc	r19, r25
 552:	48 f7       	brcc	.-46     	; 0x526 <main+0xc>
 554:	2c b5       	in	r18, 0x2c	; 44
 556:	3d b5       	in	r19, 0x2d	; 45
 558:	80 91 70 00 	lds	r24, 0x0070
 55c:	90 91 71 00 	lds	r25, 0x0071
 560:	28 17       	cp	r18, r24
 562:	39 07       	cpc	r19, r25
 564:	00 f3       	brcs	.-64     	; 0x526 <main+0xc>
 566:	8c b5       	in	r24, 0x2c	; 44
 568:	9d b5       	in	r25, 0x2d	; 45
 56a:	90 93 73 00 	sts	0x0073, r25
 56e:	80 93 72 00 	sts	0x0072, r24
 572:	53 de       	rcall	.-858    	; 0x21a <motor2_turn>
 574:	10 92 6d 00 	sts	0x006D, r1
 578:	d6 cf       	rjmp	.-84     	; 0x526 <main+0xc>
 57a:	b5 de       	rcall	.-662    	; 0x2e6 <motor2_startup>
 57c:	d4 cf       	rjmp	.-88     	; 0x526 <main+0xc>

0000057e <_exit>:
 57e:	f8 94       	cli

00000580 <__stop_program>:
 580:	ff cf       	rjmp	.-2      	; 0x580 <__stop_program>
